; Function Attrs: mustprogress uwtable
define hidden noundef ptr @_ZN3smt10theory_str6mk_intEi(ptr noundef nonnull align 8 dereferenceable(1800) %0, i32 noundef %1) local_unnamed_addr #4 align 2 personality ptr @__gxx_personality_v0 {
  %3 = alloca %class.rational, align 8
  call void @llvm.lifetime.start.p0(i64 32, ptr nonnull %3) #25
  %4 = getelementptr inbounds nuw i8, ptr %3, i64 4
  %5 = getelementptr inbounds nuw i8, ptr %3, i64 8
  store ptr null, ptr %5, align 8, !tbaa !281
  %6 = getelementptr inbounds nuw i8, ptr %3, i64 16
  store i32 1, ptr %6, align 8, !tbaa !280
  %7 = getelementptr inbounds nuw i8, ptr %3, i64 20
  store i8 0, ptr %7, align 4
  %8 = getelementptr inbounds nuw i8, ptr %3, i64 24
  store ptr null, ptr %8, align 8, !tbaa !281
  %9 = load ptr, ptr @_ZN8rational13g_mpq_managerE, align 8, !tbaa !331
  store i32 %1, ptr %3, align 8, !tbaa !280
  store i8 0, ptr %4, align 4
  call void @_ZN11mpz_managerILb1EE3delEPS0_R3mpz(ptr noundef nonnull align 8 dereferenceable(728) %9, ptr noundef nonnull align 8 dereferenceable(16) %6)
  store i32 1, ptr %6, align 8, !tbaa !280
  %10 = load i8, ptr %7, align 4
  %11 = and i8 %10, -2
  store i8 %11, ptr %7, align 4
  %12 = getelementptr inbounds nuw i8, ptr %0, i64 88
  %13 = load ptr, ptr %12, align 8, !tbaa !943
  %.not.i.i = icmp eq ptr %13, null
  br i1 %.not.i.i, label %14, label %_ZNK10arith_util6pluginEv.exit.i

14:                                               ; preds = %2
  %15 = getelementptr inbounds nuw i8, ptr %0, i64 80
  invoke void @_ZN10arith_util11init_pluginEv(ptr noundef nonnull align 8 dereferenceable(16) %15)
          to label %.noexc unwind label %22

.noexc:                                           ; preds = %14
  %.pre.i.i = load ptr, ptr %12, align 8, !tbaa !943
  br label %_ZNK10arith_util6pluginEv.exit.i

_ZNK10arith_util6pluginEv.exit.i:                 ; preds = %.noexc, %2
  %16 = phi ptr [ %.pre.i.i, %.noexc ], [ %13, %2 ]
  %17 = invoke noundef ptr @_ZN17arith_decl_plugin10mk_numeralERK8rationalb(ptr noundef nonnull align 8 dereferenceable(441) %16, ptr noundef nonnull align 8 dereferenceable(32) %3, i1 noundef zeroext true)
          to label %_ZNK10arith_util10mk_numeralERK8rationalb.exit unwind label %22

_ZNK10arith_util10mk_numeralERK8rationalb.exit:   ; preds = %_ZNK10arith_util6pluginEv.exit.i
  %18 = load ptr, ptr @_ZN8rational13g_mpq_managerE, align 8, !tbaa !331
  invoke void @_ZN11mpz_managerILb1EE3delEPS0_R3mpz(ptr noundef %18, ptr noundef nonnull align 8 dereferenceable(32) %3)
          to label %.noexc.i unwind label %19

.noexc.i:                                         ; preds = %_ZNK10arith_util10mk_numeralERK8rationalb.exit
  invoke void @_ZN11mpz_managerILb1EE3delEPS0_R3mpz(ptr noundef %18, ptr noundef nonnull align 8 dereferenceable(16) %6)
          to label %_ZN8rationalD2Ev.exit unwind label %19

19:                                               ; preds = %.noexc.i, %_ZNK10arith_util10mk_numeralERK8rationalb.exit
  %20 = landingpad { ptr, i32 }
          catch ptr null
  %21 = extractvalue { ptr, i32 } %20, 0
  call void @__clang_call_terminate(ptr %21) #26
  unreachable

_ZN8rationalD2Ev.exit:                            ; preds = %.noexc.i
  call void @llvm.lifetime.end.p0(i64 32, ptr nonnull %3) #25
  ret ptr %17

22:                                               ; preds = %_ZNK10arith_util6pluginEv.exit.i, %14
  %23 = landingpad { ptr, i32 }
          cleanup
  call void @_ZN8rationalD2Ev(ptr noundef nonnull align 8 dereferenceable(32) %3) #25
  call void @llvm.lifetime.end.p0(i64 32, ptr nonnull %3) #25
  resume { ptr, i32 } %23
}